; Function Attrs: mustprogress nofree norecurse nosync nounwind willreturn memory(argmem: read) uwtable
define internal noundef zeroext i1 @_ZNK12_GLOBAL__N_112LoopPromoter12shouldDeleteEPN4llvm11InstructionE(ptr nocapture noundef nonnull readonly align 8 dereferenceable(152) %0, ptr nocapture noundef readonly %1) unnamed_addr #13 align 2 {
  %3 = load i8, ptr %1, align 8
  %4 = icmp ne i8 %3, 62
  %5 = getelementptr inbounds nuw i8, ptr %0, i64 128
  %6 = load i8, ptr %5, align 8
  %7 = trunc i8 %6 to i1
  %.0 = select i1 %4, i1 true, i1 %7
  ret i1 %.0
}